target datalayout = "e-m:e-p270:32:32-p271:32:32-p272:64:64-i64:64-i128:128-f80:128-n8:16:32:64-S128"
target triple = "x86_64-pc-linux-gnu"

%"class.std::basic_string_view" = type { i64, ptr }
%"class.grpc_core::chttp2::FlowControlAction" = type { i8, i8, i8, i8, i8, i32, i32, i32 }
%"class.grpc_core::chttp2::TransportFlowControl" = type { ptr, i64, i8, %"class.grpc_core::BdpEstimator", i64, i64, i64, i64, i64, i32, i32 }
%"class.grpc_core::BdpEstimator" = type { i64, i64, %struct.gpr_timespec, %"class.grpc_core::Duration", i32, i32, double, %"class.std::basic_string_view" }
%struct.gpr_timespec = type { i64, i32, i32 }
%"class.grpc_core::Duration" = type { i64 }

; Function Attrs: mustprogress nounwind uwtable
define linkonce_odr noundef nonnull align 4 dereferenceable(20) ptr @_ZN9grpc_core6chttp217FlowControlAction30set_send_initial_window_updateENS1_7UrgencyEj(ptr noundef nonnull align 4 dereferenceable(20) %0, i8 noundef zeroext %1, i32 noundef %2) #8 comdat align 2 {
  %4 = alloca ptr, align 8
  %5 = alloca i8, align 1
  %6 = alloca i32, align 4
  store ptr %0, ptr %4, align 8, !tbaa !14
  store i8 %1, ptr %5, align 1, !tbaa !3
  store i32 %2, ptr %6, align 4, !tbaa !30
  %7 = load ptr, ptr %4, align 8
  %8 = load i8, ptr %5, align 1, !tbaa !3
  %9 = getelementptr inbounds nuw %"class.grpc_core::chttp2::FlowControlAction", ptr %7, i32 0, i32 2
  store i8 %8, ptr %9, align 2, !tbaa !20
  %10 = load i32, ptr %6, align 4, !tbaa !30
  %11 = getelementptr inbounds nuw %"class.grpc_core::chttp2::FlowControlAction", ptr %7, i32 0, i32 5
  store i32 %10, ptr %11, align 4, !tbaa !21
  ret ptr %7
}

; Function Attrs: inlinehint mustprogress nounwind uwtable
define linkonce_odr void @_ZN9grpc_core6chttp217FlowControlActionC2Ev(ptr noundef nonnull align 4 dereferenceable(20) %0) unnamed_addr #10 comdat align 2 {
  %2 = alloca ptr, align 8
  store ptr %0, ptr %2, align 8, !tbaa !14
  %3 = load ptr, ptr %2, align 8
  %4 = getelementptr inbounds nuw %"class.grpc_core::chttp2::FlowControlAction", ptr %3, i32 0, i32 0
  store i8 0, ptr %4, align 4, !tbaa !19
  %5 = getelementptr inbounds nuw %"class.grpc_core::chttp2::FlowControlAction", ptr %3, i32 0, i32 1
  store i8 0, ptr %5, align 1, !tbaa !16
  %6 = getelementptr inbounds nuw %"class.grpc_core::chttp2::FlowControlAction", ptr %3, i32 0, i32 2
  store i8 0, ptr %6, align 2, !tbaa !20
  %7 = getelementptr inbounds nuw %"class.grpc_core::chttp2::FlowControlAction", ptr %3, i32 0, i32 3
  store i8 0, ptr %7, align 1, !tbaa !22
  %8 = getelementptr inbounds nuw %"class.grpc_core::chttp2::FlowControlAction", ptr %3, i32 0, i32 4
  store i8 0, ptr %8, align 4, !tbaa !128
  %9 = getelementptr inbounds nuw %"class.grpc_core::chttp2::FlowControlAction", ptr %3, i32 0, i32 5
  store i32 0, ptr %9, align 4, !tbaa !21
  %10 = getelementptr inbounds nuw %"class.grpc_core::chttp2::FlowControlAction", ptr %3, i32 0, i32 6
  store i32 0, ptr %10, align 4, !tbaa !23
  %11 = getelementptr inbounds nuw %"class.grpc_core::chttp2::FlowControlAction", ptr %3, i32 0, i32 7
  store i32 0, ptr %11, align 4, !tbaa !129
  ret void
}

; Function Attrs: mustprogress uwtable
define void @_ZN9grpc_core6chttp220TransportFlowControl21SetAckedInitialWindowEj(ptr dead_on_unwind noalias writable sret(%"class.grpc_core::chttp2::FlowControlAction") align 4 %0, ptr noundef nonnull align 8 dereferenceable(144) %1, i32 noundef %2) #4 align 2 {
  %4 = alloca ptr, align 8
  %5 = alloca i32, align 4
  %6 = alloca i8, align 1
  store ptr %1, ptr %4, align 8, !tbaa !44
  store i32 %2, ptr %5, align 4, !tbaa !30
  %7 = load ptr, ptr %4, align 8
  %8 = load i32, ptr %5, align 4, !tbaa !30
  %9 = getelementptr inbounds nuw %"class.grpc_core::chttp2::TransportFlowControl", ptr %7, i32 0, i32 9
  store i32 %8, ptr %9, align 8, !tbaa !67
  call void @_ZN9grpc_core6chttp217FlowControlActionC2Ev(ptr noundef nonnull align 4 dereferenceable(20) %0) #3
  %10 = getelementptr inbounds nuw %"class.grpc_core::chttp2::TransportFlowControl", ptr %7, i32 0, i32 9
  %11 = load i32, ptr %10, align 8, !tbaa !67
  %12 = zext i32 %11 to i64
  %13 = getelementptr inbounds nuw %"class.grpc_core::chttp2::TransportFlowControl", ptr %7, i32 0, i32 5
  %14 = load i64, ptr %13, align 8, !tbaa !63
  %15 = icmp ne i64 %12, %14
  br i1 %15, label %16, label %31

16:                                               ; preds = %3
  call void @llvm.lifetime.start.p0(i64 1, ptr %6) #3
  store i8 2, ptr %6, align 1, !tbaa !3
  %17 = getelementptr inbounds nuw %"class.grpc_core::chttp2::TransportFlowControl", ptr %7, i32 0, i32 9
  %18 = load i32, ptr %17, align 8, !tbaa !67
  %19 = icmp eq i32 %18, 0
  br i1 %19, label %24, label %20

20:                                               ; preds = %16
  %21 = getelementptr inbounds nuw %"class.grpc_core::chttp2::TransportFlowControl", ptr %7, i32 0, i32 5
  %22 = load i64, ptr %21, align 8, !tbaa !63
  %23 = icmp eq i64 %22, 0
  br i1 %23, label %24, label %25

24:                                               ; preds = %20, %16
  store i8 1, ptr %6, align 1, !tbaa !3
  br label %25

25:                                               ; preds = %24, %20
  %26 = load i8, ptr %6, align 1, !tbaa !3
  %27 = getelementptr inbounds nuw %"class.grpc_core::chttp2::TransportFlowControl", ptr %7, i32 0, i32 5
  %28 = load i64, ptr %27, align 8, !tbaa !63
  %29 = trunc i64 %28 to i32
  %30 = call noundef nonnull align 4 dereferenceable(20) ptr @_ZN9grpc_core6chttp217FlowControlAction30set_send_initial_window_updateENS1_7UrgencyEj(ptr noundef nonnull align 4 dereferenceable(20) %0, i8 noundef zeroext %26, i32 noundef %29)
  call void @llvm.lifetime.end.p0(i64 1, ptr %6) #3
  br label %31

31:                                               ; preds = %25, %3
  ret void
}