; Function Attrs: mustprogress nofree norecurse nosync nounwind willreturn memory(argmem: readwrite) uwtable
define void @_ZN9grpc_core6chttp220TransportFlowControl21SetAckedInitialWindowEj(ptr dead_on_unwind noalias writable writeonly sret(%"class.grpc_core::chttp2::FlowControlAction") align 4 captures(none) initializes((0, 5), (8, 20)) %0, ptr noundef nonnull align 8 captures(none) dereferenceable(144) initializes((136, 140)) %1, i32 noundef %2) local_unnamed_addr #9 align 2 {
  %4 = getelementptr inbounds nuw i8, ptr %1, i64 136
  store i32 %2, ptr %4, align 8, !tbaa !65
  %5 = getelementptr inbounds nuw i8, ptr %0, i64 8
  store i32 0, ptr %5, align 4, !tbaa !24
  %6 = getelementptr inbounds nuw i8, ptr %0, i64 12
  store i32 0, ptr %6, align 4, !tbaa !29
  %7 = getelementptr inbounds nuw i8, ptr %0, i64 16
  store i32 0, ptr %7, align 4, !tbaa !113
  tail call void @llvm.memset.p0.i64(ptr noundef nonnull align 4 dereferenceable(20) %0, i8 0, i64 5, i1 false)
  %8 = zext i32 %2 to i64
  %9 = getelementptr inbounds nuw i8, ptr %1, i64 104
  %10 = load i64, ptr %9, align 8, !tbaa !61
  %.not = icmp eq i64 %10, %8
  br i1 %.not, label %16, label %11

11:                                               ; preds = %3
  %12 = icmp eq i32 %2, 0
  %13 = icmp eq i64 %10, 0
  %or.cond = or i1 %12, %13
  %.0 = select i1 %or.cond, i8 1, i8 2
  %14 = trunc i64 %10 to i32
  %15 = getelementptr inbounds nuw i8, ptr %0, i64 2
  store i8 %.0, ptr %15, align 2, !tbaa !23
  store i32 %14, ptr %5, align 4, !tbaa !24
  br label %16

16:                                               ; preds = %11, %3
  ret void
}